; Function Attrs: mustprogress uwtable
define dso_local noundef i32 @_ZN20cmCTestScriptHandler14ProcessHandlerEv(ptr noundef nonnull align 8 dereferenceable(824) %0) unnamed_addr #3 align 2 personality ptr @__gxx_personality_v0 {
  %2 = alloca %"class.std::__cxx11::basic_string", align 8
  %3 = getelementptr inbounds i8, ptr %0, i64 288
  %4 = getelementptr inbounds i8, ptr %0, i64 296
  %5 = load ptr, ptr %4, align 8
  %6 = load ptr, ptr %3, align 8
  %.not14 = icmp eq ptr %5, %6
  br i1 %.not14, label %._crit_edge, label %.lr.ph

.lr.ph:                                           ; preds = %1
  %7 = getelementptr inbounds i8, ptr %0, i64 312
  br label %8

8:                                                ; preds = %.lr.ph, %22
  %9 = phi ptr [ %6, %.lr.ph ], [ %26, %22 ]
  %.0913 = phi i32 [ 0, %.lr.ph ], [ %23, %22 ]
  %.01012 = phi i64 [ 0, %.lr.ph ], [ %24, %22 ]
  %10 = getelementptr inbounds %"class.std::__cxx11::basic_string", ptr %9, i64 %.01012
  call void @_ZN5cmsys11SystemTools16CollapseFullPathERKNSt7__cxx1112basic_stringIcSt11char_traitsIcESaIcEEE(ptr dead_on_unwind nonnull writable sret(%"class.std::__cxx11::basic_string") align 8 %2, ptr noundef nonnull align 8 dereferenceable(32) %10)
  %11 = load ptr, ptr %7, align 8
  %12 = sdiv i64 %.01012, 64
  %13 = getelementptr inbounds i64, ptr %11, i64 %12
  %14 = and i64 %.01012, -9223372036854775745
  %15 = icmp ugt i64 %14, -9223372036854775808
  %storemerge.idx.i.i.i.i.i = select i1 %15, i64 -8, i64 0
  %storemerge.i.i.i.i.i = getelementptr inbounds i8, ptr %13, i64 %storemerge.idx.i.i.i.i.i
  %16 = and i64 %.01012, 63
  %17 = shl nuw i64 1, %16
  %18 = load i64, ptr %storemerge.i.i.i.i.i, align 8
  %19 = and i64 %18, %17
  %20 = icmp ne i64 %19, 0
  %21 = invoke noundef i32 @_ZN20cmCTestScriptHandler22RunConfigurationScriptERKNSt7__cxx1112basic_stringIcSt11char_traitsIcESaIcEEEb(ptr noundef nonnull align 8 dereferenceable(824) %0, ptr noundef nonnull align 8 dereferenceable(32) %2, i1 noundef zeroext %20)
          to label %22 unwind label %32

22:                                               ; preds = %8
  %23 = or i32 %21, %.0913
  call void @_ZNSt7__cxx1112basic_stringIcSt11char_traitsIcESaIcEED1Ev(ptr noundef nonnull align 8 dereferenceable(32) %2) #20
  %24 = add nuw i64 %.01012, 1
  %25 = load ptr, ptr %4, align 8
  %26 = load ptr, ptr %3, align 8
  %27 = ptrtoint ptr %25 to i64
  %28 = ptrtoint ptr %26 to i64
  %29 = sub i64 %27, %28
  %30 = ashr exact i64 %29, 5
  %31 = icmp ult i64 %24, %30
  br i1 %31, label %8, label %._crit_edge.loopexit, !llvm.loop !7

32:                                               ; preds = %8
  %33 = landingpad { ptr, i32 }
          cleanup
  call void @_ZNSt7__cxx1112basic_stringIcSt11char_traitsIcESaIcEED1Ev(ptr noundef nonnull align 8 dereferenceable(32) %2) #20
  resume { ptr, i32 } %33

._crit_edge.loopexit:                             ; preds = %22
  %34 = icmp ne i32 %23, 0
  %35 = sext i1 %34 to i32
  br label %._crit_edge

._crit_edge:                                      ; preds = %._crit_edge.loopexit, %1
  %.09.lcssa = phi i32 [ 0, %1 ], [ %35, %._crit_edge.loopexit ]
  ret i32 %.09.lcssa
}